; Function Attrs: nounwind uwtable
define internal noundef zeroext i1 @comp_keyword_case_hook(ptr noundef %0) #0 {
  %2 = tail call i32 @pg_strcasecmp(ptr noundef %0, ptr noundef nonnull @.str.123) #15
  %3 = icmp eq i32 %2, 0
  br i1 %3, label %4, label %5

4:                                                ; preds = %1
  store i32 0, ptr getelementptr inbounds nuw (i8, ptr @pset, i64 432), align 8
  br label %18

5:                                                ; preds = %1
  %6 = tail call i32 @pg_strcasecmp(ptr noundef %0, ptr noundef nonnull @.str.124) #15
  %7 = icmp eq i32 %6, 0
  br i1 %7, label %8, label %9

8:                                                ; preds = %5
  store i32 1, ptr getelementptr inbounds nuw (i8, ptr @pset, i64 432), align 8
  br label %18

9:                                                ; preds = %5
  %10 = tail call i32 @pg_strcasecmp(ptr noundef %0, ptr noundef nonnull @.str.125) #15
  %11 = icmp eq i32 %10, 0
  br i1 %11, label %12, label %13

12:                                               ; preds = %9
  store i32 2, ptr getelementptr inbounds nuw (i8, ptr @pset, i64 432), align 8
  br label %18

13:                                               ; preds = %9
  %14 = tail call i32 @pg_strcasecmp(ptr noundef %0, ptr noundef nonnull @.str.126) #15
  %15 = icmp eq i32 %14, 0
  br i1 %15, label %16, label %17

16:                                               ; preds = %13
  store i32 3, ptr getelementptr inbounds nuw (i8, ptr @pset, i64 432), align 8
  br label %18

17:                                               ; preds = %13
  tail call void @PsqlVarEnumError(ptr noundef nonnull @.str.106, ptr noundef %0, ptr noundef nonnull @.str.127) #15
  br label %18

18:                                               ; preds = %4, %12, %16, %8, %17
  %.0 = phi i1 [ false, %17 ], [ true, %8 ], [ true, %16 ], [ true, %12 ], [ true, %4 ]
  ret i1 %.0
}